target datalayout = "e-m:e-p270:32:32-p271:32:32-p272:64:64-i64:64-i128:128-f80:128-n8:16:32:64-S128"
target triple = "x86_64-pc-linux-gnu"

%"class.std::basic_ostream" = type { ptr, %"class.std::basic_ios" }
%"class.std::basic_ios" = type { %"class.std::ios_base", ptr, i8, i8, ptr, ptr, ptr, ptr }
%"class.std::ios_base" = type { ptr, i64, i64, i32, i32, i32, ptr, %"struct.std::ios_base::_Words", [8 x %"struct.std::ios_base::_Words"], i32, ptr, %"class.std::locale" }
%"struct.std::ios_base::_Words" = type { ptr, i64 }
%"class.std::locale" = type { ptr }
%"class.std::__cxx11::basic_string" = type { %"struct.std::__cxx11::basic_string<char>::_Alloc_hider", i64, %union.anon }
%"struct.std::__cxx11::basic_string<char>::_Alloc_hider" = type { ptr }
%union.anon = type { i64, [8 x i8] }
%"class.std::__shared_ptr" = type { ptr, %"class.std::__shared_count" }
%"class.std::__shared_count" = type { ptr }
%"struct.std::__detail::_Hash_node_base" = type { ptr }
%"struct.std::__detail::_Prime_rehash_policy" = type { float, i64 }
%"struct.Luau::Location" = type { %"struct.Luau::Position", %"struct.Luau::Position" }
%"struct.Luau::Position" = type { i32, i32 }
%"struct.Luau::TypeArena" = type { %"class.Luau::TypedAllocator", %"class.Luau::TypedAllocator.129", ptr }
%"class.Luau::TypedAllocator" = type { i8, %"class.std::vector.124", i64 }
%"class.std::vector.124" = type { %"struct.std::_Vector_base.125" }
%"struct.std::_Vector_base.125" = type { %"struct.std::_Vector_base<Luau::Type *, std::allocator<Luau::Type *>>::_Vector_impl" }
%"struct.std::_Vector_base<Luau::Type *, std::allocator<Luau::Type *>>::_Vector_impl" = type { %"struct.std::_Vector_base<Luau::Type *, std::allocator<Luau::Type *>>::_Vector_impl_data" }
%"struct.std::_Vector_base<Luau::Type *, std::allocator<Luau::Type *>>::_Vector_impl_data" = type { ptr, ptr, ptr }
%"class.Luau::TypedAllocator.129" = type { i8, %"class.std::vector.130", i64 }
%"class.std::vector.130" = type { %"struct.std::_Vector_base.131" }
%"struct.std::_Vector_base.131" = type { %"struct.std::_Vector_base<Luau::TypePackVar *, std::allocator<Luau::TypePackVar *>>::_Vector_impl" }
%"struct.std::_Vector_base<Luau::TypePackVar *, std::allocator<Luau::TypePackVar *>>::_Vector_impl" = type { %"struct.std::_Vector_base<Luau::TypePackVar *, std::allocator<Luau::TypePackVar *>>::_Vector_impl_data" }
%"struct.std::_Vector_base<Luau::TypePackVar *, std::allocator<Luau::TypePackVar *>>::_Vector_impl_data" = type { ptr, ptr, ptr }
%"class.std::shared_ptr.135" = type { %"class.std::__shared_ptr.136" }
%"class.std::__shared_ptr.136" = type { ptr, %"class.std::__shared_count" }
%"class.std::shared_ptr.138" = type { %"class.std::__shared_ptr.139" }
%"class.std::__shared_ptr.139" = type { ptr, %"class.std::__shared_count" }
%"class.std::vector.266" = type { %"struct.std::_Vector_base.267" }
%"struct.std::_Vector_base.267" = type { %"struct.std::_Vector_base<Luau::LintWarning, std::allocator<Luau::LintWarning>>::_Vector_impl" }
%"struct.std::_Vector_base<Luau::LintWarning, std::allocator<Luau::LintWarning>>::_Vector_impl" = type { %"struct.std::_Vector_base<Luau::LintWarning, std::allocator<Luau::LintWarning>>::_Vector_impl_data" }
%"struct.std::_Vector_base<Luau::LintWarning, std::allocator<Luau::LintWarning>>::_Vector_impl_data" = type { ptr, ptr, ptr }
%"struct.Luau::DenseHashPointer" = type { i8 }
%"struct.std::equal_to.273" = type { i8 }
%"class.std::vector.412" = type { %"struct.std::_Vector_base.413" }
%"struct.std::_Vector_base.413" = type { %"struct.std::_Vector_base<Luau::TypeError, std::allocator<Luau::TypeError>>::_Vector_impl" }
%"struct.std::_Vector_base<Luau::TypeError, std::allocator<Luau::TypeError>>::_Vector_impl" = type { %"struct.std::_Vector_base<Luau::TypeError, std::allocator<Luau::TypeError>>::_Vector_impl_data" }
%"struct.std::_Vector_base<Luau::TypeError, std::allocator<Luau::TypeError>>::_Vector_impl_data" = type { ptr, ptr, ptr }
%"struct.Luau::LintResult" = type { %"class.std::vector.266", %"class.std::vector.266" }
%"class.std::unordered_map.511" = type { %"class.std::_Hashtable.512" }
%"class.std::_Hashtable.512" = type { ptr, i64, %"struct.std::__detail::_Hash_node_base", i64, %"struct.std::__detail::_Prime_rehash_policy", ptr }
%"class.std::unordered_map.497" = type { %"class.std::_Hashtable.498" }
%"class.std::_Hashtable.498" = type { ptr, i64, %"struct.std::__detail::_Hash_node_base", i64, %"struct.std::__detail::_Prime_rehash_policy", ptr }
%"struct.Luau::Module" = type { %"class.std::__cxx11::basic_string", %"class.std::__cxx11::basic_string", %"struct.Luau::TypeArena", %"struct.Luau::TypeArena", %"class.std::shared_ptr.135", %"class.std::shared_ptr.138", %"class.std::vector.458", %"class.Luau::DenseHashMap.463", %"class.Luau::DenseHashMap.468", %"class.Luau::DenseHashMap.463", %"class.Luau::DenseHashMap.471", %"class.Luau::DenseHashMap.471", %"class.Luau::DenseHashMap.471", %"class.Luau::DenseHashMap.476", %"class.Luau::DenseHashMap.481", %"class.Luau::DenseHashMap.486", %"class.Luau::DenseHashMap.491", %"class.Luau::DenseHashMap.494", %"class.std::unordered_map.497", %"class.std::vector.412", %"struct.Luau::LintResult", i32, i32, double, i8, i8, ptr, %"class.std::unordered_map.511" }
%"class.std::vector.458" = type { %"struct.std::_Vector_base.459" }
%"struct.std::_Vector_base.459" = type { %"struct.std::_Vector_base<std::pair<Luau::Location, std::shared_ptr<Luau::Scope>>, std::allocator<std::pair<Luau::Location, std::shared_ptr<Luau::Scope>>>>::_Vector_impl" }
%"struct.std::_Vector_base<std::pair<Luau::Location, std::shared_ptr<Luau::Scope>>, std::allocator<std::pair<Luau::Location, std::shared_ptr<Luau::Scope>>>>::_Vector_impl" = type { %"struct.std::_Vector_base<std::pair<Luau::Location, std::shared_ptr<Luau::Scope>>, std::allocator<std::pair<Luau::Location, std::shared_ptr<Luau::Scope>>>>::_Vector_impl_data" }
%"struct.std::_Vector_base<std::pair<Luau::Location, std::shared_ptr<Luau::Scope>>, std::allocator<std::pair<Luau::Location, std::shared_ptr<Luau::Scope>>>>::_Vector_impl_data" = type { ptr, ptr, ptr }
%"class.Luau::DenseHashMap.468" = type { %"class.Luau::detail::DenseHashTable.469" }
%"class.Luau::detail::DenseHashTable.469" = type <{ ptr, i64, i64, ptr, %"struct.Luau::DenseHashPointer", %"struct.std::equal_to.465", [6 x i8] }>
%"struct.std::equal_to.465" = type { i8 }
%"class.Luau::DenseHashMap.463" = type { %"class.Luau::detail::DenseHashTable.464" }
%"class.Luau::detail::DenseHashTable.464" = type <{ ptr, i64, i64, ptr, %"struct.Luau::DenseHashPointer", %"struct.std::equal_to.465", [6 x i8] }>
%"class.Luau::DenseHashMap.471" = type { %"class.Luau::detail::DenseHashTable.472" }
%"class.Luau::detail::DenseHashTable.472" = type <{ ptr, i64, i64, ptr, %"struct.Luau::DenseHashPointer", %"struct.std::equal_to.473", [6 x i8] }>
%"struct.std::equal_to.473" = type { i8 }
%"class.Luau::DenseHashMap.476" = type { %"class.Luau::detail::DenseHashTable.477" }
%"class.Luau::detail::DenseHashTable.477" = type <{ ptr, i64, i64, ptr, %"struct.Luau::DenseHashPointer", %"struct.std::equal_to.478", [6 x i8] }>
%"struct.std::equal_to.478" = type { i8 }
%"class.Luau::DenseHashMap.481" = type { %"class.Luau::detail::DenseHashTable.482" }
%"class.Luau::detail::DenseHashTable.482" = type <{ ptr, i64, i64, ptr, %"struct.Luau::DenseHashPointer", %"struct.std::equal_to.483", [6 x i8] }>
%"struct.std::equal_to.483" = type { i8 }
%"class.Luau::DenseHashMap.486" = type { %"class.Luau::detail::DenseHashTable.487" }
%"class.Luau::detail::DenseHashTable.487" = type <{ ptr, i64, i64, ptr, %"struct.Luau::DenseHashPointer", %"struct.std::equal_to.488", [6 x i8] }>
%"struct.std::equal_to.488" = type { i8 }
%"class.Luau::DenseHashMap.491" = type { %"class.Luau::detail::DenseHashTable.492" }
%"class.Luau::detail::DenseHashTable.492" = type <{ ptr, i64, i64, ptr, %"struct.Luau::DenseHashPointer", %"struct.std::equal_to.273", [6 x i8] }>
%"class.Luau::DenseHashMap.494" = type { %"class.Luau::detail::DenseHashTable.495" }
%"class.Luau::detail::DenseHashTable.495" = type <{ ptr, i64, i64, ptr, %"struct.Luau::DenseHashPointer", %"struct.std::equal_to.473", [6 x i8] }>
%"struct.Luau::TypeError" = type { %"struct.Luau::Location", %"class.std::__cxx11::basic_string", %"class.Luau::Variant" }
%"class.Luau::Variant" = type { i32, [4 x i8], [104 x i8] }
%"class.__gnu_cxx::__normal_iterator.669" = type { ptr }

@.str.75 = private unnamed_addr constant [8 x i8] c"Error: \00", align 1
@_ZSt4cout = external global %"class.std::basic_ostream", align 8

; Function Attrs: mustprogress nounwind uwtable
define linkonce_odr dso_local noundef ptr @_ZNKSt12__shared_ptrIN4Luau6ModuleELN9__gnu_cxx12_Lock_policyE2EE3getEv(ptr noundef nonnull align 8 dereferenceable(16) %0) #1 comdat align 2 {
  %2 = alloca ptr, align 8
  store ptr %0, ptr %2, align 8
  %3 = load ptr, ptr %2, align 8
  %4 = getelementptr inbounds %"class.std::__shared_ptr", ptr %3, i32 0, i32 0
  %5 = load ptr, ptr %4, align 8
  ret ptr %5
}

; Function Attrs: mustprogress nounwind uwtable
define linkonce_odr dso_local noundef nonnull align 8 dereferenceable(8) ptr @_ZNK9__gnu_cxx17__normal_iteratorIPN4Luau9TypeErrorESt6vectorIS2_SaIS2_EEE4baseEv(ptr noundef nonnull align 8 dereferenceable(8) %0) #1 comdat align 2 {
  %2 = alloca ptr, align 8
  store ptr %0, ptr %2, align 8
  %3 = load ptr, ptr %2, align 8
  %4 = getelementptr inbounds %"class.__gnu_cxx::__normal_iterator.669", ptr %3, i32 0, i32 0
  ret ptr %4
}

; Function Attrs: mustprogress nounwind uwtable
define linkonce_odr dso_local void @_ZN9__gnu_cxx17__normal_iteratorIPN4Luau9TypeErrorESt6vectorIS2_SaIS2_EEEC2ERKS3_(ptr noundef nonnull align 8 dereferenceable(8) %0, ptr noundef nonnull align 8 dereferenceable(8) %1) unnamed_addr #1 comdat align 2 {
  %3 = alloca ptr, align 8
  %4 = alloca ptr, align 8
  store ptr %0, ptr %3, align 8
  store ptr %1, ptr %4, align 8
  %5 = load ptr, ptr %3, align 8
  %6 = getelementptr inbounds %"class.__gnu_cxx::__normal_iterator.669", ptr %5, i32 0, i32 0
  %7 = load ptr, ptr %4, align 8
  %8 = load ptr, ptr %7, align 8
  store ptr %8, ptr %6, align 8
  ret void
}

; Function Attrs: mustprogress nounwind uwtable
define linkonce_odr dso_local noundef ptr @_ZNKSt19__shared_ptr_accessIN4Luau6ModuleELN9__gnu_cxx12_Lock_policyE2ELb0ELb0EE6_M_getEv(ptr noundef nonnull align 1 dereferenceable(1) %0) #1 comdat align 2 {
  %2 = alloca ptr, align 8
  store ptr %0, ptr %2, align 8
  %3 = load ptr, ptr %2, align 8
  %4 = call noundef ptr @_ZNKSt12__shared_ptrIN4Luau6ModuleELN9__gnu_cxx12_Lock_policyE2EE3getEv(ptr noundef nonnull align 8 dereferenceable(16) %3) #2
  ret ptr %4
}

; Function Attrs: mustprogress nounwind uwtable
define linkonce_odr dso_local noundef nonnull align 8 dereferenceable(8) ptr @_ZN9__gnu_cxx17__normal_iteratorIPN4Luau9TypeErrorESt6vectorIS2_SaIS2_EEEppEv(ptr noundef nonnull align 8 dereferenceable(8) %0) #1 comdat align 2 {
  %2 = alloca ptr, align 8
  store ptr %0, ptr %2, align 8
  %3 = load ptr, ptr %2, align 8
  %4 = getelementptr inbounds %"class.__gnu_cxx::__normal_iterator.669", ptr %3, i32 0, i32 0
  %5 = load ptr, ptr %4, align 8
  %6 = getelementptr inbounds %"struct.Luau::TypeError", ptr %5, i32 1
  store ptr %6, ptr %4, align 8
  ret ptr %3
}

; Function Attrs: mustprogress nounwind uwtable
define linkonce_odr dso_local noundef nonnull align 8 dereferenceable(160) ptr @_ZNK9__gnu_cxx17__normal_iteratorIPN4Luau9TypeErrorESt6vectorIS2_SaIS2_EEEdeEv(ptr noundef nonnull align 8 dereferenceable(8) %0) #1 comdat align 2 {
  %2 = alloca ptr, align 8
  store ptr %0, ptr %2, align 8
  %3 = load ptr, ptr %2, align 8
  %4 = getelementptr inbounds %"class.__gnu_cxx::__normal_iterator.669", ptr %3, i32 0, i32 0
  %5 = load ptr, ptr %4, align 8
  ret ptr %5
}

; Function Attrs: mustprogress nounwind uwtable
define linkonce_odr dso_local noundef zeroext i1 @_ZN9__gnu_cxxneIPN4Luau9TypeErrorESt6vectorIS2_SaIS2_EEEEbRKNS_17__normal_iteratorIT_T0_EESC_(ptr noundef nonnull align 8 dereferenceable(8) %0, ptr noundef nonnull align 8 dereferenceable(8) %1) #1 comdat {
  %3 = alloca ptr, align 8
  %4 = alloca ptr, align 8
  store ptr %0, ptr %3, align 8
  store ptr %1, ptr %4, align 8
  %5 = load ptr, ptr %3, align 8
  %6 = call noundef nonnull align 8 dereferenceable(8) ptr @_ZNK9__gnu_cxx17__normal_iteratorIPN4Luau9TypeErrorESt6vectorIS2_SaIS2_EEE4baseEv(ptr noundef nonnull align 8 dereferenceable(8) %5) #2
  %7 = load ptr, ptr %6, align 8
  %8 = load ptr, ptr %4, align 8
  %9 = call noundef nonnull align 8 dereferenceable(8) ptr @_ZNK9__gnu_cxx17__normal_iteratorIPN4Luau9TypeErrorESt6vectorIS2_SaIS2_EEE4baseEv(ptr noundef nonnull align 8 dereferenceable(8) %8) #2
  %10 = load ptr, ptr %9, align 8
  %11 = icmp ne ptr %7, %10
  ret i1 %11
}

; Function Attrs: mustprogress nounwind uwtable
define linkonce_odr dso_local ptr @_ZNSt6vectorIN4Luau9TypeErrorESaIS1_EE3endEv(ptr noundef nonnull align 8 dereferenceable(24) %0) #1 comdat align 2 {
  %2 = alloca %"class.__gnu_cxx::__normal_iterator.669", align 8
  %3 = alloca ptr, align 8
  store ptr %0, ptr %3, align 8
  %4 = load ptr, ptr %3, align 8
  %5 = getelementptr inbounds %"struct.std::_Vector_base.413", ptr %4, i32 0, i32 0
  %6 = getelementptr inbounds %"struct.std::_Vector_base<Luau::TypeError, std::allocator<Luau::TypeError>>::_Vector_impl_data", ptr %5, i32 0, i32 1
  call void @_ZN9__gnu_cxx17__normal_iteratorIPN4Luau9TypeErrorESt6vectorIS2_SaIS2_EEEC2ERKS3_(ptr noundef nonnull align 8 dereferenceable(8) %2, ptr noundef nonnull align 8 dereferenceable(8) %6) #2
  %7 = getelementptr inbounds %"class.__gnu_cxx::__normal_iterator.669", ptr %2, i32 0, i32 0
  %8 = load ptr, ptr %7, align 8
  ret ptr %8
}

; Function Attrs: mustprogress nounwind uwtable
define linkonce_odr dso_local ptr @_ZNSt6vectorIN4Luau9TypeErrorESaIS1_EE5beginEv(ptr noundef nonnull align 8 dereferenceable(24) %0) #1 comdat align 2 {
  %2 = alloca %"class.__gnu_cxx::__normal_iterator.669", align 8
  %3 = alloca ptr, align 8
  store ptr %0, ptr %3, align 8
  %4 = load ptr, ptr %3, align 8
  %5 = getelementptr inbounds %"struct.std::_Vector_base.413", ptr %4, i32 0, i32 0
  %6 = getelementptr inbounds %"struct.std::_Vector_base<Luau::TypeError, std::allocator<Luau::TypeError>>::_Vector_impl_data", ptr %5, i32 0, i32 0
  call void @_ZN9__gnu_cxx17__normal_iteratorIPN4Luau9TypeErrorESt6vectorIS2_SaIS2_EEEC2ERKS3_(ptr noundef nonnull align 8 dereferenceable(8) %2, ptr noundef nonnull align 8 dereferenceable(8) %6) #2
  %7 = getelementptr inbounds %"class.__gnu_cxx::__normal_iterator.669", ptr %2, i32 0, i32 0
  %8 = load ptr, ptr %7, align 8
  ret ptr %8
}

; Function Attrs: mustprogress nounwind uwtable
define linkonce_odr dso_local noundef ptr @_ZNKSt19__shared_ptr_accessIN4Luau6ModuleELN9__gnu_cxx12_Lock_policyE2ELb0ELb0EEptEv(ptr noundef nonnull align 1 dereferenceable(1) %0) #1 comdat align 2 {
  %2 = alloca ptr, align 8
  store ptr %0, ptr %2, align 8
  %3 = load ptr, ptr %2, align 8
  %4 = call noundef ptr @_ZNKSt19__shared_ptr_accessIN4Luau6ModuleELN9__gnu_cxx12_Lock_policyE2ELb0ELb0EE6_M_getEv(ptr noundef nonnull align 1 dereferenceable(1) %3) #2
  ret ptr %4
}

; Function Attrs: mustprogress uwtable
define dso_local void @_ZN4Luau10dumpErrorsERKSt10shared_ptrINS_6ModuleEE(ptr noundef nonnull align 8 dereferenceable(16) %0) #6 {
  %2 = alloca ptr, align 8
  %3 = alloca ptr, align 8
  %4 = alloca %"class.__gnu_cxx::__normal_iterator.669", align 8
  %5 = alloca %"class.__gnu_cxx::__normal_iterator.669", align 8
  %6 = alloca ptr, align 8
  store ptr %0, ptr %2, align 8
  %7 = load ptr, ptr %2, align 8
  %8 = call noundef ptr @_ZNKSt19__shared_ptr_accessIN4Luau6ModuleELN9__gnu_cxx12_Lock_policyE2ELb0ELb0EEptEv(ptr noundef nonnull align 1 dereferenceable(1) %7) #2
  %9 = getelementptr inbounds %"struct.Luau::Module", ptr %8, i32 0, i32 19
  store ptr %9, ptr %3, align 8
  %10 = load ptr, ptr %3, align 8
  %11 = call ptr @_ZNSt6vectorIN4Luau9TypeErrorESaIS1_EE5beginEv(ptr noundef nonnull align 8 dereferenceable(24) %10) #2
  %12 = getelementptr inbounds %"class.__gnu_cxx::__normal_iterator.669", ptr %4, i32 0, i32 0
  store ptr %11, ptr %12, align 8
  %13 = load ptr, ptr %3, align 8
  %14 = call ptr @_ZNSt6vectorIN4Luau9TypeErrorESaIS1_EE3endEv(ptr noundef nonnull align 8 dereferenceable(24) %13) #2
  %15 = getelementptr inbounds %"class.__gnu_cxx::__normal_iterator.669", ptr %5, i32 0, i32 0
  store ptr %14, ptr %15, align 8
  br label %16

16:                                               ; preds = %24, %1
  %17 = call noundef zeroext i1 @_ZN9__gnu_cxxneIPN4Luau9TypeErrorESt6vectorIS2_SaIS2_EEEEbRKNS_17__normal_iteratorIT_T0_EESC_(ptr noundef nonnull align 8 dereferenceable(8) %4, ptr noundef nonnull align 8 dereferenceable(8) %5) #2
  br i1 %17, label %18, label %26

18:                                               ; preds = %16
  %19 = call noundef nonnull align 8 dereferenceable(160) ptr @_ZNK9__gnu_cxx17__normal_iteratorIPN4Luau9TypeErrorESt6vectorIS2_SaIS2_EEEdeEv(ptr noundef nonnull align 8 dereferenceable(8) %4) #2
  store ptr %19, ptr %6, align 8
  %20 = call noundef nonnull align 8 dereferenceable(8) ptr @_ZStlsISt11char_traitsIcEERSt13basic_ostreamIcT_ES5_PKc(ptr noundef nonnull align 8 dereferenceable(8) @_ZSt4cout, ptr noundef @.str.75)
  %21 = load ptr, ptr %6, align 8
  %22 = call noundef nonnull align 8 dereferenceable(8) ptr @_ZN4LuaulsERSoRKNS_9TypeErrorE(ptr noundef nonnull align 8 dereferenceable(8) %20, ptr noundef nonnull align 8 dereferenceable(160) %21)
  %23 = call noundef nonnull align 8 dereferenceable(8) ptr @_ZNSolsEPFRSoS_E(ptr noundef nonnull align 8 dereferenceable(8) %22, ptr noundef @_ZSt4endlIcSt11char_traitsIcEERSt13basic_ostreamIT_T0_ES6_)
  br label %24

24:                                               ; preds = %18
  %25 = call noundef nonnull align 8 dereferenceable(8) ptr @_ZN9__gnu_cxx17__normal_iteratorIPN4Luau9TypeErrorESt6vectorIS2_SaIS2_EEEppEv(ptr noundef nonnull align 8 dereferenceable(8) %4) #2
  br label %16

26:                                               ; preds = %16
  ret void
}