; Function Attrs: mustprogress uwtable
define dso_local void @_ZN4Luau10dumpErrorsERKSt10shared_ptrINS_6ModuleEE(ptr noundef nonnull readonly align 8 captures(none) dereferenceable(16) %0) local_unnamed_addr #6 {
  %2 = load ptr, ptr %0, align 8
  %3 = getelementptr inbounds nuw i8, ptr %2, i64 792
  %4 = load ptr, ptr %3, align 8
  %5 = getelementptr inbounds nuw i8, ptr %2, i64 800
  %6 = load ptr, ptr %5, align 8
  %.not7 = icmp eq ptr %4, %6
  br i1 %.not7, label %._crit_edge, label %.lr.ph

.lr.ph:                                           ; preds = %1, %.lr.ph
  %.sroa.04.08 = phi ptr [ %10, %.lr.ph ], [ %4, %1 ]
  %7 = tail call noundef nonnull align 8 dereferenceable(8) ptr @_ZStlsISt11char_traitsIcEERSt13basic_ostreamIcT_ES5_PKc(ptr noundef nonnull align 8 dereferenceable(8) @_ZSt4cout, ptr noundef nonnull @.str.75)
  %8 = tail call noundef nonnull align 8 dereferenceable(8) ptr @_ZN4LuaulsERSoRKNS_9TypeErrorE(ptr noundef nonnull align 8 dereferenceable(8) %7, ptr noundef nonnull align 8 dereferenceable(160) %.sroa.04.08)
  %9 = tail call noundef nonnull align 8 dereferenceable(8) ptr @_ZNSolsEPFRSoS_E(ptr noundef nonnull align 8 dereferenceable(8) %8, ptr noundef nonnull @_ZSt4endlIcSt11char_traitsIcEERSt13basic_ostreamIT_T0_ES6_)
  %10 = getelementptr inbounds nuw i8, ptr %.sroa.04.08, i64 160
  %.not = icmp eq ptr %10, %6
  br i1 %.not, label %._crit_edge, label %.lr.ph

._crit_edge:                                      ; preds = %.lr.ph, %1
  ret void
}